; Function Attrs: nounwind uwtable
define dso_local zeroext i1 @range_overright_internal(ptr noundef %0, ptr noundef %1, ptr noundef %2) local_unnamed_addr #0 {
  %4 = alloca %struct.RangeBound, align 8
  %5 = alloca %struct.RangeBound, align 8
  %6 = alloca %struct.RangeBound, align 8
  %7 = alloca %struct.RangeBound, align 8
  %8 = alloca i8, align 1
  %9 = alloca i8, align 1
  call void @llvm.lifetime.start.p0(i64 16, ptr nonnull %4) #14
  call void @llvm.lifetime.start.p0(i64 16, ptr nonnull %5) #14
  call void @llvm.lifetime.start.p0(i64 16, ptr nonnull %6) #14
  call void @llvm.lifetime.start.p0(i64 16, ptr nonnull %7) #14
  call void @llvm.lifetime.start.p0(i64 1, ptr nonnull %8) #14
  call void @llvm.lifetime.start.p0(i64 1, ptr nonnull %9) #14
  %10 = getelementptr inbounds nuw i8, ptr %1, i64 4
  %11 = load i32, ptr %10, align 4
  %12 = getelementptr inbounds nuw i8, ptr %2, i64 4
  %13 = load i32, ptr %12, align 4
  %.not = icmp eq i32 %11, %13
  br i1 %.not, label %17, label %14

14:                                               ; preds = %3
  %15 = tail call zeroext i1 @errstart_cold(i32 noundef 21, ptr noundef null) #16
  tail call void @llvm.assume(i1 %15)
  %16 = tail call i32 (ptr, ...) @errmsg_internal(ptr noundef nonnull @.str.2) #14
  tail call void @errfinish(ptr noundef nonnull @.str.1, i32 noundef 939, ptr noundef nonnull @__func__.range_overright_internal) #14
  unreachable

17:                                               ; preds = %3
  call void @range_deserialize(ptr noundef %0, ptr noundef nonnull %1, ptr noundef nonnull %4, ptr noundef nonnull %6, ptr noundef nonnull %8)
  call void @range_deserialize(ptr noundef %0, ptr noundef nonnull %2, ptr noundef nonnull %5, ptr noundef nonnull %7, ptr noundef nonnull %9)
  %18 = load i8, ptr %8, align 1, !range !7, !noundef !8
  %19 = trunc nuw i8 %18 to i1
  br i1 %19, label %85, label %20

20:                                               ; preds = %17
  %21 = load i8, ptr %9, align 1, !range !7, !noundef !8
  %22 = trunc nuw i8 %21 to i1
  br i1 %22, label %85, label %23

23:                                               ; preds = %20
  %24 = getelementptr inbounds nuw i8, ptr %4, i64 8
  %25 = load i8, ptr %24, align 8, !range !7, !noundef !8
  %26 = trunc nuw i8 %25 to i1
  %27 = getelementptr inbounds nuw i8, ptr %5, i64 8
  %28 = load i8, ptr %27, align 8, !range !7, !noundef !8
  %29 = trunc nuw i8 %28 to i1
  br i1 %26, label %30, label %43

30:                                               ; preds = %23
  %31 = getelementptr inbounds nuw i8, ptr %4, i64 10
  %32 = load i8, ptr %31, align 2, !range !7, !noundef !8
  br i1 %29, label %33, label %40

33:                                               ; preds = %30
  %34 = getelementptr inbounds nuw i8, ptr %5, i64 10
  %35 = load i8, ptr %34, align 2, !range !7, !noundef !8
  %36 = icmp eq i8 %32, %35
  br i1 %36, label %range_cmp_bounds.exit, label %37

37:                                               ; preds = %33
  %38 = trunc nuw i8 %32 to i1
  %39 = select i1 %38, i32 -1, i32 1
  br label %range_cmp_bounds.exit

40:                                               ; preds = %30
  %41 = trunc nuw i8 %32 to i1
  %42 = select i1 %41, i32 -1, i32 1
  br label %range_cmp_bounds.exit

43:                                               ; preds = %23
  br i1 %29, label %44, label %49

44:                                               ; preds = %43
  %45 = getelementptr inbounds nuw i8, ptr %5, i64 10
  %46 = load i8, ptr %45, align 2, !range !7, !noundef !8
  %47 = trunc nuw i8 %46 to i1
  %48 = select i1 %47, i32 1, i32 -1
  br label %range_cmp_bounds.exit

49:                                               ; preds = %43
  %50 = getelementptr inbounds nuw i8, ptr %0, i64 296
  %51 = getelementptr inbounds nuw i8, ptr %0, i64 292
  %52 = load i32, ptr %51, align 4
  %53 = load i64, ptr %4, align 8
  %54 = load i64, ptr %5, align 8
  %55 = tail call i64 @FunctionCall2Coll(ptr noundef nonnull %50, i32 noundef %52, i64 noundef %53, i64 noundef %54) #14
  %56 = trunc i64 %55 to i32
  %57 = icmp eq i32 %56, 0
  br i1 %57, label %58, label %range_cmp_bounds.exit

58:                                               ; preds = %49
  %59 = getelementptr inbounds nuw i8, ptr %4, i64 9
  %60 = load i8, ptr %59, align 1, !range !7, !noundef !8
  %61 = trunc nuw i8 %60 to i1
  %62 = getelementptr inbounds nuw i8, ptr %5, i64 9
  %63 = load i8, ptr %62, align 1, !range !7, !noundef !8
  %64 = trunc nuw i8 %63 to i1
  br i1 %61, label %78, label %65

65:                                               ; preds = %58
  %66 = getelementptr inbounds nuw i8, ptr %4, i64 10
  %67 = load i8, ptr %66, align 2, !range !7, !noundef !8
  br i1 %64, label %75, label %68

68:                                               ; preds = %65
  %69 = getelementptr inbounds nuw i8, ptr %5, i64 10
  %70 = load i8, ptr %69, align 2, !range !7, !noundef !8
  %71 = icmp eq i8 %67, %70
  br i1 %71, label %range_cmp_bounds.exit, label %72

72:                                               ; preds = %68
  %73 = trunc nuw i8 %67 to i1
  %74 = select i1 %73, i32 1, i32 -1
  br label %range_cmp_bounds.exit

75:                                               ; preds = %65
  %76 = trunc nuw i8 %67 to i1
  %77 = select i1 %76, i32 1, i32 -1
  br label %range_cmp_bounds.exit

78:                                               ; preds = %58
  br i1 %64, label %range_cmp_bounds.exit, label %79

79:                                               ; preds = %78
  %80 = getelementptr inbounds nuw i8, ptr %5, i64 10
  %81 = load i8, ptr %80, align 2, !range !7, !noundef !8
  %82 = trunc nuw i8 %81 to i1
  %83 = select i1 %82, i32 -1, i32 1
  br label %range_cmp_bounds.exit

range_cmp_bounds.exit:                            ; preds = %33, %37, %40, %44, %49, %68, %72, %75, %78, %79
  %.0.i = phi i32 [ %39, %37 ], [ %42, %40 ], [ %48, %44 ], [ %83, %79 ], [ %77, %75 ], [ %74, %72 ], [ 0, %33 ], [ 0, %68 ], [ 0, %78 ], [ %56, %49 ]
  %84 = icmp sgt i32 %.0.i, -1
  br label %85

85:                                               ; preds = %range_cmp_bounds.exit, %17, %20
  %.0 = phi i1 [ false, %20 ], [ false, %17 ], [ %84, %range_cmp_bounds.exit ]
  call void @llvm.lifetime.end.p0(i64 1, ptr nonnull %9) #14
  call void @llvm.lifetime.end.p0(i64 1, ptr nonnull %8) #14
  call void @llvm.lifetime.end.p0(i64 16, ptr nonnull %7) #14
  call void @llvm.lifetime.end.p0(i64 16, ptr nonnull %6) #14
  call void @llvm.lifetime.end.p0(i64 16, ptr nonnull %5) #14
  call void @llvm.lifetime.end.p0(i64 16, ptr nonnull %4) #14
  ret i1 %.0
}